target datalayout = "e-m:e-p270:32:32-p271:32:32-p272:64:64-i64:64-i128:128-f80:128-n8:16:32:64-S128"
target triple = "x86_64-pc-linux-gnu"

%struct.KDF_ARGON2 = type { ptr, i32, ptr, i32, ptr, i32, ptr, i32, ptr, i32, i32, i32, i32, i32, i32, i32, i32, ptr, i32, i32, i32, i32, ptr, ptr, ptr, ptr }
%struct.BLOCK = type { [128 x i64] }

@.str = private unnamed_addr constant [51 x i8] c"../openssl/providers/implementations/kdfs/argon2.c\00", align 1

; Function Attrs: inlinehint nounwind uwtable
define internal void @store64(ptr noundef %0, i64 noundef %1) #4 {
  %3 = alloca ptr, align 8
  %4 = alloca i64, align 8
  store ptr %0, ptr %3, align 8, !tbaa !28
  store i64 %1, ptr %4, align 8, !tbaa !29
  %5 = load i64, ptr %4, align 8, !tbaa !29
  %6 = lshr i64 %5, 0
  %7 = trunc i64 %6 to i8
  %8 = load ptr, ptr %3, align 8, !tbaa !28
  %9 = getelementptr inbounds i8, ptr %8, i64 0
  store i8 %7, ptr %9, align 1, !tbaa !54
  %10 = load i64, ptr %4, align 8, !tbaa !29
  %11 = lshr i64 %10, 8
  %12 = trunc i64 %11 to i8
  %13 = load ptr, ptr %3, align 8, !tbaa !28
  %14 = getelementptr inbounds i8, ptr %13, i64 1
  store i8 %12, ptr %14, align 1, !tbaa !54
  %15 = load i64, ptr %4, align 8, !tbaa !29
  %16 = lshr i64 %15, 16
  %17 = trunc i64 %16 to i8
  %18 = load ptr, ptr %3, align 8, !tbaa !28
  %19 = getelementptr inbounds i8, ptr %18, i64 2
  store i8 %17, ptr %19, align 1, !tbaa !54
  %20 = load i64, ptr %4, align 8, !tbaa !29
  %21 = lshr i64 %20, 24
  %22 = trunc i64 %21 to i8
  %23 = load ptr, ptr %3, align 8, !tbaa !28
  %24 = getelementptr inbounds i8, ptr %23, i64 3
  store i8 %22, ptr %24, align 1, !tbaa !54
  %25 = load i64, ptr %4, align 8, !tbaa !29
  %26 = lshr i64 %25, 32
  %27 = trunc i64 %26 to i8
  %28 = load ptr, ptr %3, align 8, !tbaa !28
  %29 = getelementptr inbounds i8, ptr %28, i64 4
  store i8 %27, ptr %29, align 1, !tbaa !54
  %30 = load i64, ptr %4, align 8, !tbaa !29
  %31 = lshr i64 %30, 40
  %32 = trunc i64 %31 to i8
  %33 = load ptr, ptr %3, align 8, !tbaa !28
  %34 = getelementptr inbounds i8, ptr %33, i64 5
  store i8 %32, ptr %34, align 1, !tbaa !54
  %35 = load i64, ptr %4, align 8, !tbaa !29
  %36 = lshr i64 %35, 48
  %37 = trunc i64 %36 to i8
  %38 = load ptr, ptr %3, align 8, !tbaa !28
  %39 = getelementptr inbounds i8, ptr %38, i64 6
  store i8 %37, ptr %39, align 1, !tbaa !54
  %40 = load i64, ptr %4, align 8, !tbaa !29
  %41 = lshr i64 %40, 56
  %42 = trunc i64 %41 to i8
  %43 = load ptr, ptr %3, align 8, !tbaa !28
  %44 = getelementptr inbounds i8, ptr %43, i64 7
  store i8 %42, ptr %44, align 1, !tbaa !54
  ret void
}

; Function Attrs: nounwind uwtable
define internal void @store_block(ptr noundef %0, ptr noundef %1) #0 {
  %3 = alloca ptr, align 8
  %4 = alloca ptr, align 8
  %5 = alloca i32, align 4
  store ptr %0, ptr %3, align 8, !tbaa !3
  store ptr %1, ptr %4, align 8, !tbaa !3
  call void @llvm.lifetime.start.p0(i64 4, ptr %5) #6
  store i32 0, ptr %5, align 4, !tbaa !26
  br label %6

6:                                                ; preds = %21, %2
  %7 = load i32, ptr %5, align 4, !tbaa !26
  %8 = icmp ult i32 %7, 128
  br i1 %8, label %9, label %24

9:                                                ; preds = %6
  %10 = load ptr, ptr %3, align 8, !tbaa !3
  %11 = load i32, ptr %5, align 4, !tbaa !26
  %12 = zext i32 %11 to i64
  %13 = mul i64 %12, 8
  %14 = getelementptr inbounds nuw i8, ptr %10, i64 %13
  %15 = load ptr, ptr %4, align 8, !tbaa !3
  %16 = getelementptr inbounds nuw %struct.BLOCK, ptr %15, i32 0, i32 0
  %17 = load i32, ptr %5, align 4, !tbaa !26
  %18 = zext i32 %17 to i64
  %19 = getelementptr inbounds nuw [128 x i64], ptr %16, i64 0, i64 %18
  %20 = load i64, ptr %19, align 8, !tbaa !29
  call void @store64(ptr noundef %14, i64 noundef %20)
  br label %21

21:                                               ; preds = %9
  %22 = load i32, ptr %5, align 4, !tbaa !26
  %23 = add i32 %22, 1
  store i32 %23, ptr %5, align 4, !tbaa !26
  br label %6, !llvm.loop !86

24:                                               ; preds = %6
  call void @llvm.lifetime.end.p0(i64 4, ptr %5) #6
  ret void
}

; Function Attrs: nounwind uwtable
define internal void @xor_block(ptr noundef %0, ptr noundef %1) #0 {
  %3 = alloca ptr, align 8
  %4 = alloca ptr, align 8
  %5 = alloca i32, align 4
  store ptr %0, ptr %3, align 8, !tbaa !3
  store ptr %1, ptr %4, align 8, !tbaa !3
  call void @llvm.lifetime.start.p0(i64 4, ptr %5) #6
  store i32 0, ptr %5, align 4, !tbaa !26
  br label %6

6:                                                ; preds = %23, %2
  %7 = load i32, ptr %5, align 4, !tbaa !26
  %8 = icmp slt i32 %7, 128
  br i1 %8, label %9, label %26

9:                                                ; preds = %6
  %10 = load ptr, ptr %4, align 8, !tbaa !3
  %11 = getelementptr inbounds nuw %struct.BLOCK, ptr %10, i32 0, i32 0
  %12 = load i32, ptr %5, align 4, !tbaa !26
  %13 = sext i32 %12 to i64
  %14 = getelementptr inbounds [128 x i64], ptr %11, i64 0, i64 %13
  %15 = load i64, ptr %14, align 8, !tbaa !29
  %16 = load ptr, ptr %3, align 8, !tbaa !3
  %17 = getelementptr inbounds nuw %struct.BLOCK, ptr %16, i32 0, i32 0
  %18 = load i32, ptr %5, align 4, !tbaa !26
  %19 = sext i32 %18 to i64
  %20 = getelementptr inbounds [128 x i64], ptr %17, i64 0, i64 %19
  %21 = load i64, ptr %20, align 8, !tbaa !29
  %22 = xor i64 %21, %15
  store i64 %22, ptr %20, align 8, !tbaa !29
  br label %23

23:                                               ; preds = %9
  %24 = load i32, ptr %5, align 4, !tbaa !26
  %25 = add nsw i32 %24, 1
  store i32 %25, ptr %5, align 4, !tbaa !26
  br label %6, !llvm.loop !82

26:                                               ; preds = %6
  call void @llvm.lifetime.end.p0(i64 4, ptr %5) #6
  ret void
}

; Function Attrs: nounwind uwtable
define internal void @copy_block(ptr noundef %0, ptr noundef %1) #0 {
  %3 = alloca ptr, align 8
  %4 = alloca ptr, align 8
  store ptr %0, ptr %3, align 8, !tbaa !3
  store ptr %1, ptr %4, align 8, !tbaa !3
  %5 = load ptr, ptr %3, align 8, !tbaa !3
  %6 = getelementptr inbounds nuw %struct.BLOCK, ptr %5, i32 0, i32 0
  %7 = getelementptr inbounds [128 x i64], ptr %6, i64 0, i64 0
  %8 = load ptr, ptr %4, align 8, !tbaa !3
  %9 = getelementptr inbounds nuw %struct.BLOCK, ptr %8, i32 0, i32 0
  %10 = getelementptr inbounds [128 x i64], ptr %9, i64 0, i64 0
  call void @llvm.memcpy.p0.p0.i64(ptr align 8 %7, ptr align 8 %10, i64 1024, i1 false)
  ret void
}

; Function Attrs: nounwind uwtable
define internal void @finalize(ptr noundef %0, ptr noundef %1) #0 {
  %3 = alloca ptr, align 8
  %4 = alloca ptr, align 8
  %5 = alloca %struct.BLOCK, align 8
  %6 = alloca [1024 x i8], align 16
  %7 = alloca i32, align 4
  %8 = alloca i32, align 4
  %9 = alloca i32, align 4
  store ptr %0, ptr %3, align 8, !tbaa !3
  store ptr %1, ptr %4, align 8, !tbaa !3
  call void @llvm.lifetime.start.p0(i64 1024, ptr %5) #6
  call void @llvm.lifetime.start.p0(i64 1024, ptr %6) #6
  call void @llvm.lifetime.start.p0(i64 4, ptr %7) #6
  call void @llvm.lifetime.start.p0(i64 4, ptr %8) #6
  %10 = load ptr, ptr %3, align 8, !tbaa !3
  %11 = icmp eq ptr %10, null
  br i1 %11, label %12, label %13

12:                                               ; preds = %2
  store i32 1, ptr %9, align 4
  br label %90

13:                                               ; preds = %2
  %14 = load ptr, ptr %3, align 8, !tbaa !3
  %15 = getelementptr inbounds nuw %struct.KDF_ARGON2, ptr %14, i32 0, i32 17
  %16 = load ptr, ptr %15, align 8, !tbaa !37
  %17 = load ptr, ptr %3, align 8, !tbaa !3
  %18 = getelementptr inbounds nuw %struct.KDF_ARGON2, ptr %17, i32 0, i32 21
  %19 = load i32, ptr %18, align 4, !tbaa !42
  %20 = zext i32 %19 to i64
  %21 = getelementptr inbounds nuw %struct.BLOCK, ptr %16, i64 %20
  %22 = getelementptr inbounds %struct.BLOCK, ptr %21, i64 -1
  call void @copy_block(ptr noundef %5, ptr noundef %22)
  store i32 1, ptr %8, align 4, !tbaa !26
  br label %23

23:                                               ; preds = %46, %13
  %24 = load i32, ptr %8, align 4, !tbaa !26
  %25 = load ptr, ptr %3, align 8, !tbaa !3
  %26 = getelementptr inbounds nuw %struct.KDF_ARGON2, ptr %25, i32 0, i32 12
  %27 = load i32, ptr %26, align 4, !tbaa !35
  %28 = icmp ult i32 %24, %27
  br i1 %28, label %29, label %49

29:                                               ; preds = %23
  %30 = load i32, ptr %8, align 4, !tbaa !26
  %31 = load ptr, ptr %3, align 8, !tbaa !3
  %32 = getelementptr inbounds nuw %struct.KDF_ARGON2, ptr %31, i32 0, i32 21
  %33 = load i32, ptr %32, align 4, !tbaa !42
  %34 = mul i32 %30, %33
  %35 = load ptr, ptr %3, align 8, !tbaa !3
  %36 = getelementptr inbounds nuw %struct.KDF_ARGON2, ptr %35, i32 0, i32 21
  %37 = load i32, ptr %36, align 4, !tbaa !42
  %38 = sub i32 %37, 1
  %39 = add i32 %34, %38
  store i32 %39, ptr %7, align 4, !tbaa !26
  %40 = load ptr, ptr %3, align 8, !tbaa !3
  %41 = getelementptr inbounds nuw %struct.KDF_ARGON2, ptr %40, i32 0, i32 17
  %42 = load ptr, ptr %41, align 8, !tbaa !37
  %43 = load i32, ptr %7, align 4, !tbaa !26
  %44 = zext i32 %43 to i64
  %45 = getelementptr inbounds nuw %struct.BLOCK, ptr %42, i64 %44
  call void @xor_block(ptr noundef %5, ptr noundef %45)
  br label %46

46:                                               ; preds = %29
  %47 = load i32, ptr %8, align 4, !tbaa !26
  %48 = add i32 %47, 1
  store i32 %48, ptr %8, align 4, !tbaa !26
  br label %23, !llvm.loop !47

49:                                               ; preds = %23
  %50 = getelementptr inbounds [1024 x i8], ptr %6, i64 0, i64 0
  call void @store_block(ptr noundef %50, ptr noundef %5)
  %51 = load ptr, ptr %3, align 8, !tbaa !3
  %52 = getelementptr inbounds nuw %struct.KDF_ARGON2, ptr %51, i32 0, i32 23
  %53 = load ptr, ptr %52, align 8, !tbaa !22
  %54 = load ptr, ptr %3, align 8, !tbaa !3
  %55 = getelementptr inbounds nuw %struct.KDF_ARGON2, ptr %54, i32 0, i32 24
  %56 = load ptr, ptr %55, align 8, !tbaa !23
  %57 = load ptr, ptr %4, align 8, !tbaa !3
  %58 = load ptr, ptr %3, align 8, !tbaa !3
  %59 = getelementptr inbounds nuw %struct.KDF_ARGON2, ptr %58, i32 0, i32 1
  %60 = load i32, ptr %59, align 8, !tbaa !33
  %61 = zext i32 %60 to i64
  %62 = getelementptr inbounds [1024 x i8], ptr %6, i64 0, i64 0
  %63 = call i32 @blake2b_long(ptr noundef %53, ptr noundef %56, ptr noundef %57, i64 noundef %61, ptr noundef %62, i64 noundef 1024)
  %64 = getelementptr inbounds nuw %struct.BLOCK, ptr %5, i32 0, i32 0
  %65 = getelementptr inbounds [128 x i64], ptr %64, i64 0, i64 0
  call void @OPENSSL_cleanse(ptr noundef %65, i64 noundef 1024)
  %66 = getelementptr inbounds [1024 x i8], ptr %6, i64 0, i64 0
  call void @OPENSSL_cleanse(ptr noundef %66, i64 noundef 1024)
  %67 = load ptr, ptr %3, align 8, !tbaa !3
  %68 = getelementptr inbounds nuw %struct.KDF_ARGON2, ptr %67, i32 0, i32 16
  %69 = load i32, ptr %68, align 4, !tbaa !25
  %70 = icmp ne i32 %69, 0
  br i1 %70, label %71, label %80

71:                                               ; preds = %49
  %72 = load ptr, ptr %3, align 8, !tbaa !3
  %73 = getelementptr inbounds nuw %struct.KDF_ARGON2, ptr %72, i32 0, i32 17
  %74 = load ptr, ptr %73, align 8, !tbaa !37
  %75 = load ptr, ptr %3, align 8, !tbaa !3
  %76 = getelementptr inbounds nuw %struct.KDF_ARGON2, ptr %75, i32 0, i32 19
  %77 = load i32, ptr %76, align 4, !tbaa !38
  %78 = zext i32 %77 to i64
  %79 = mul i64 %78, 1024
  call void @CRYPTO_secure_clear_free(ptr noundef %74, i64 noundef %79, ptr noundef @.str, i32 noundef 784)
  br label %89

80:                                               ; preds = %49
  %81 = load ptr, ptr %3, align 8, !tbaa !3
  %82 = getelementptr inbounds nuw %struct.KDF_ARGON2, ptr %81, i32 0, i32 17
  %83 = load ptr, ptr %82, align 8, !tbaa !37
  %84 = load ptr, ptr %3, align 8, !tbaa !3
  %85 = getelementptr inbounds nuw %struct.KDF_ARGON2, ptr %84, i32 0, i32 19
  %86 = load i32, ptr %85, align 4, !tbaa !38
  %87 = zext i32 %86 to i64
  %88 = mul i64 %87, 1024
  call void @CRYPTO_clear_free(ptr noundef %83, i64 noundef %88, ptr noundef @.str, i32 noundef 787)
  br label %89

89:                                               ; preds = %80, %71
  store i32 0, ptr %9, align 4
  br label %90

90:                                               ; preds = %89, %12
  call void @llvm.lifetime.end.p0(i64 4, ptr %8) #6
  call void @llvm.lifetime.end.p0(i64 4, ptr %7) #6
  call void @llvm.lifetime.end.p0(i64 1024, ptr %6) #6
  call void @llvm.lifetime.end.p0(i64 1024, ptr %5) #6
  %91 = load i32, ptr %9, align 4
  switch i32 %91, label %93 [
    i32 0, label %92
    i32 1, label %92
  ]

92:                                               ; preds = %90, %90
  ret void

93:                                               ; preds = %90
  unreachable
}