; Function Attrs: nounwind uwtable
define internal fastcc void @finalize(ptr noundef readonly captures(address_is_null) %0, ptr noundef %1) unnamed_addr #0 {
  %3 = alloca %struct.BLOCK, align 8
  %4 = alloca [1024 x i8], align 16
  call void @llvm.lifetime.start.p0(i64 1024, ptr nonnull %3) #10
  call void @llvm.lifetime.start.p0(i64 1024, ptr nonnull %4) #10
  %5 = icmp eq ptr %0, null
  br i1 %5, label %70, label %6

6:                                                ; preds = %2
  %7 = getelementptr inbounds nuw i8, ptr %0, i64 104
  %8 = load ptr, ptr %7, align 8, !tbaa !31
  %9 = getelementptr inbounds nuw i8, ptr %0, i64 124
  %10 = load i32, ptr %9, align 4, !tbaa !35
  %11 = zext i32 %10 to i64
  %12 = getelementptr inbounds nuw %struct.BLOCK, ptr %8, i64 %11
  %13 = getelementptr inbounds i8, ptr %12, i64 -1024
  call void @llvm.memcpy.p0.p0.i64(ptr noundef nonnull align 8 dereferenceable(1024) %3, ptr noundef nonnull readonly align 8 dereferenceable(1024) %13, i64 1024, i1 false)
  %14 = getelementptr inbounds nuw i8, ptr %0, i64 84
  %15 = load i32, ptr %14, align 4, !tbaa !16
  %16 = icmp ugt i32 %15, 1
  br i1 %16, label %.lr.ph, label %.preheader.preheader

.lr.ph:                                           ; preds = %6
  %17 = add i32 %10, -1
  %wide.trip.count = zext i32 %15 to i64
  br label %18

18:                                               ; preds = %.lr.ph, %xor_block.exit
  %indvars.iv = phi i64 [ 1, %.lr.ph ], [ %indvars.iv.next, %xor_block.exit ]
  %19 = trunc nuw i64 %indvars.iv to i32
  %20 = mul i32 %10, %19
  %21 = add i32 %17, %20
  %22 = zext i32 %21 to i64
  %23 = getelementptr inbounds nuw %struct.BLOCK, ptr %8, i64 %22
  br label %24

24:                                               ; preds = %24, %18
  %indvars.iv.i = phi i64 [ 0, %18 ], [ %indvars.iv.next.i, %24 ]
  %25 = getelementptr inbounds nuw [128 x i64], ptr %23, i64 0, i64 %indvars.iv.i
  %26 = load i64, ptr %25, align 8, !tbaa !40
  %27 = getelementptr inbounds nuw [128 x i64], ptr %3, i64 0, i64 %indvars.iv.i
  %28 = load i64, ptr %27, align 8, !tbaa !40
  %29 = xor i64 %28, %26
  store i64 %29, ptr %27, align 8, !tbaa !40
  %indvars.iv.next.i = add nuw nsw i64 %indvars.iv.i, 1
  %exitcond.not.i = icmp eq i64 %indvars.iv.next.i, 128
  br i1 %exitcond.not.i, label %xor_block.exit, label %24, !llvm.loop !62

xor_block.exit:                                   ; preds = %24
  %indvars.iv.next = add nuw nsw i64 %indvars.iv, 1
  %exitcond.not = icmp eq i64 %indvars.iv.next, %wide.trip.count
  br i1 %exitcond.not, label %.preheader.preheader, label %18, !llvm.loop !63

.preheader.preheader:                             ; preds = %xor_block.exit, %6
  br label %.preheader

.preheader:                                       ; preds = %.preheader.preheader, %.preheader
  %indvars.iv.i20 = phi i64 [ %indvars.iv.next.i21, %.preheader ], [ 0, %.preheader.preheader ]
  %30 = shl nuw nsw i64 %indvars.iv.i20, 3
  %31 = getelementptr inbounds nuw i8, ptr %4, i64 %30
  %32 = getelementptr inbounds nuw [128 x i64], ptr %3, i64 0, i64 %indvars.iv.i20
  %33 = load i64, ptr %32, align 8, !tbaa !40
  %34 = trunc i64 %33 to i8
  store i8 %34, ptr %31, align 8, !tbaa !44
  %35 = lshr i64 %33, 8
  %36 = trunc i64 %35 to i8
  %37 = getelementptr inbounds nuw i8, ptr %31, i64 1
  store i8 %36, ptr %37, align 1, !tbaa !44
  %38 = lshr i64 %33, 16
  %39 = trunc i64 %38 to i8
  %40 = getelementptr inbounds nuw i8, ptr %31, i64 2
  store i8 %39, ptr %40, align 2, !tbaa !44
  %41 = lshr i64 %33, 24
  %42 = trunc i64 %41 to i8
  %43 = getelementptr inbounds nuw i8, ptr %31, i64 3
  store i8 %42, ptr %43, align 1, !tbaa !44
  %44 = lshr i64 %33, 32
  %45 = trunc i64 %44 to i8
  %46 = getelementptr inbounds nuw i8, ptr %31, i64 4
  store i8 %45, ptr %46, align 4, !tbaa !44
  %47 = lshr i64 %33, 40
  %48 = trunc i64 %47 to i8
  %49 = getelementptr inbounds nuw i8, ptr %31, i64 5
  store i8 %48, ptr %49, align 1, !tbaa !44
  %50 = lshr i64 %33, 48
  %51 = trunc i64 %50 to i8
  %52 = getelementptr inbounds nuw i8, ptr %31, i64 6
  store i8 %51, ptr %52, align 2, !tbaa !44
  %53 = lshr i64 %33, 56
  %54 = trunc nuw i64 %53 to i8
  %55 = getelementptr inbounds nuw i8, ptr %31, i64 7
  store i8 %54, ptr %55, align 1, !tbaa !44
  %indvars.iv.next.i21 = add nuw nsw i64 %indvars.iv.i20, 1
  %exitcond.not.i22 = icmp eq i64 %indvars.iv.next.i21, 128
  br i1 %exitcond.not.i22, label %store_block.exit, label %.preheader, !llvm.loop !64

store_block.exit:                                 ; preds = %.preheader
  %56 = getelementptr inbounds nuw i8, ptr %0, i64 136
  %57 = load ptr, ptr %56, align 8, !tbaa !28
  %58 = getelementptr inbounds nuw i8, ptr %0, i64 8
  %59 = load i32, ptr %58, align 8, !tbaa !13
  %60 = zext i32 %59 to i64
  call fastcc void @blake2b_long(ptr noundef %57, ptr noundef %1, i64 noundef %60, ptr noundef %4, i64 noundef 1024)
  call void @OPENSSL_cleanse(ptr noundef nonnull %3, i64 noundef 1024) #10
  call void @OPENSSL_cleanse(ptr noundef nonnull %4, i64 noundef 1024) #10
  %61 = getelementptr inbounds nuw i8, ptr %0, i64 100
  %62 = load i32, ptr %61, align 4, !tbaa !19
  %.not = icmp eq i32 %62, 0
  %63 = load ptr, ptr %7, align 8, !tbaa !31
  %64 = getelementptr inbounds nuw i8, ptr %0, i64 116
  %65 = load i32, ptr %64, align 4, !tbaa !32
  %66 = zext i32 %65 to i64
  %67 = shl nuw nsw i64 %66, 10
  br i1 %.not, label %69, label %68

68:                                               ; preds = %store_block.exit
  call void @CRYPTO_secure_clear_free(ptr noundef %63, i64 noundef %67, ptr noundef nonnull @.str, i32 noundef 784) #10
  br label %70

69:                                               ; preds = %store_block.exit
  call void @CRYPTO_clear_free(ptr noundef %63, i64 noundef %67, ptr noundef nonnull @.str, i32 noundef 787) #10
  br label %70

70:                                               ; preds = %68, %69, %2
  call void @llvm.lifetime.end.p0(i64 1024, ptr nonnull %4) #10
  call void @llvm.lifetime.end.p0(i64 1024, ptr nonnull %3) #10
  ret void
}